target datalayout = "e-m:e-p270:32:32-p271:32:32-p272:64:64-i64:64-i128:128-f80:128-n8:16:32:64-S128"
target triple = "x86_64-pc-linux-gnu"

%struct.translation_ctx_st = type { ptr, i32, i32, ptr, i32, i32, ptr, i64, ptr, ptr, [50 x i8], ptr, ptr, i64 }
%struct.ossl_param_st = type { ptr, i32, ptr, i64, i64 }

@.str = private unnamed_addr constant [46 x i8] c"../openssl/crypto/evp/ctrl_params_translate.c\00", align 1
@__func__.get_payload_public_key = private unnamed_addr constant [23 x i8] c"get_payload_public_key\00", align 1

; Function Attrs: nounwind uwtable
define internal i32 @get_payload_public_key(i32 noundef %0, ptr noundef %1, ptr noundef %2) #0 {
  %4 = alloca i32, align 4
  %5 = alloca i32, align 4
  %6 = alloca ptr, align 8
  %7 = alloca ptr, align 8
  %8 = alloca ptr, align 8
  %9 = alloca ptr, align 8
  %10 = alloca i32, align 4
  %11 = alloca i32, align 4
  %12 = alloca ptr, align 8
  %13 = alloca ptr, align 8
  %14 = alloca ptr, align 8
  %15 = alloca ptr, align 8
  store i32 %0, ptr %5, align 4, !tbaa !8
  store ptr %1, ptr %6, align 8, !tbaa !11
  store ptr %2, ptr %7, align 8, !tbaa !43
  call void @llvm.lifetime.start.p0(i64 8, ptr %8) #9
  %16 = load ptr, ptr %7, align 8, !tbaa !43
  %17 = getelementptr inbounds nuw %struct.translation_ctx_st, ptr %16, i32 0, i32 6
  %18 = load ptr, ptr %17, align 8, !tbaa !40
  store ptr %18, ptr %8, align 8, !tbaa !68
  call void @llvm.lifetime.start.p0(i64 8, ptr %9) #9
  store ptr null, ptr %9, align 8, !tbaa !50
  call void @llvm.lifetime.start.p0(i64 4, ptr %10) #9
  %19 = load ptr, ptr %7, align 8, !tbaa !43
  %20 = getelementptr inbounds nuw %struct.translation_ctx_st, ptr %19, i32 0, i32 6
  store ptr null, ptr %20, align 8, !tbaa !40
  %21 = load ptr, ptr %8, align 8, !tbaa !68
  %22 = call i32 @EVP_PKEY_get_base_id(ptr noundef %21)
  switch i32 %22, label %94 [
    i32 920, label %23
    i32 28, label %23
    i32 116, label %46
    i32 408, label %60
  ]

23:                                               ; preds = %3, %3
  %24 = load ptr, ptr %7, align 8, !tbaa !43
  %25 = getelementptr inbounds nuw %struct.translation_ctx_st, ptr %24, i32 0, i32 8
  %26 = load ptr, ptr %25, align 8, !tbaa !42
  %27 = getelementptr inbounds nuw %struct.ossl_param_st, ptr %26, i32 0, i32 1
  %28 = load i32, ptr %27, align 8, !tbaa !62
  switch i32 %28, label %44 [
    i32 5, label %29
    i32 2, label %38
  ]

29:                                               ; preds = %23
  %30 = load ptr, ptr %8, align 8, !tbaa !68
  %31 = call ptr @EVP_PKEY_get0_DH(ptr noundef %30)
  %32 = call i64 @ossl_dh_key2buf(ptr noundef %31, ptr noundef %9, i64 noundef 0, i32 noundef 1)
  %33 = load ptr, ptr %7, align 8, !tbaa !43
  %34 = getelementptr inbounds nuw %struct.translation_ctx_st, ptr %33, i32 0, i32 7
  store i64 %32, ptr %34, align 8, !tbaa !61
  %35 = load ptr, ptr %9, align 8, !tbaa !50
  %36 = load ptr, ptr %7, align 8, !tbaa !43
  %37 = getelementptr inbounds nuw %struct.translation_ctx_st, ptr %36, i32 0, i32 6
  store ptr %35, ptr %37, align 8, !tbaa !40
  br label %45

38:                                               ; preds = %23
  %39 = load ptr, ptr %8, align 8, !tbaa !68
  %40 = call ptr @EVP_PKEY_get0_DH(ptr noundef %39)
  %41 = call ptr @DH_get0_pub_key(ptr noundef %40)
  %42 = load ptr, ptr %7, align 8, !tbaa !43
  %43 = getelementptr inbounds nuw %struct.translation_ctx_st, ptr %42, i32 0, i32 6
  store ptr %41, ptr %43, align 8, !tbaa !40
  br label %45

44:                                               ; preds = %23
  store i32 0, ptr %4, align 4
  store i32 1, ptr %11, align 4
  br label %102

45:                                               ; preds = %38, %29
  br label %95

46:                                               ; preds = %3
  %47 = load ptr, ptr %7, align 8, !tbaa !43
  %48 = getelementptr inbounds nuw %struct.translation_ctx_st, ptr %47, i32 0, i32 8
  %49 = load ptr, ptr %48, align 8, !tbaa !42
  %50 = getelementptr inbounds nuw %struct.ossl_param_st, ptr %49, i32 0, i32 1
  %51 = load i32, ptr %50, align 8, !tbaa !62
  %52 = icmp eq i32 %51, 2
  br i1 %52, label %53, label %59

53:                                               ; preds = %46
  %54 = load ptr, ptr %8, align 8, !tbaa !68
  %55 = call ptr @EVP_PKEY_get0_DSA(ptr noundef %54)
  %56 = call ptr @DSA_get0_pub_key(ptr noundef %55)
  %57 = load ptr, ptr %7, align 8, !tbaa !43
  %58 = getelementptr inbounds nuw %struct.translation_ctx_st, ptr %57, i32 0, i32 6
  store ptr %56, ptr %58, align 8, !tbaa !40
  br label %95

59:                                               ; preds = %46
  store i32 0, ptr %4, align 4
  store i32 1, ptr %11, align 4
  br label %102

60:                                               ; preds = %3
  %61 = load ptr, ptr %7, align 8, !tbaa !43
  %62 = getelementptr inbounds nuw %struct.translation_ctx_st, ptr %61, i32 0, i32 8
  %63 = load ptr, ptr %62, align 8, !tbaa !42
  %64 = getelementptr inbounds nuw %struct.ossl_param_st, ptr %63, i32 0, i32 1
  %65 = load i32, ptr %64, align 8, !tbaa !62
  %66 = icmp eq i32 %65, 5
  br i1 %66, label %67, label %93

67:                                               ; preds = %60
  call void @llvm.lifetime.start.p0(i64 8, ptr %12) #9
  %68 = load ptr, ptr %8, align 8, !tbaa !68
  %69 = call ptr @EVP_PKEY_get0_EC_KEY(ptr noundef %68)
  store ptr %69, ptr %12, align 8, !tbaa !97
  call void @llvm.lifetime.start.p0(i64 8, ptr %13) #9
  %70 = load ptr, ptr %12, align 8, !tbaa !97
  %71 = call ptr @ossl_ec_key_get_libctx(ptr noundef %70)
  %72 = call ptr @BN_CTX_new_ex(ptr noundef %71)
  store ptr %72, ptr %13, align 8, !tbaa !99
  call void @llvm.lifetime.start.p0(i64 8, ptr %14) #9
  %73 = load ptr, ptr %12, align 8, !tbaa !97
  %74 = call ptr @EC_KEY_get0_group(ptr noundef %73)
  store ptr %74, ptr %14, align 8, !tbaa !95
  call void @llvm.lifetime.start.p0(i64 8, ptr %15) #9
  %75 = load ptr, ptr %12, align 8, !tbaa !97
  %76 = call ptr @EC_KEY_get0_public_key(ptr noundef %75)
  store ptr %76, ptr %15, align 8, !tbaa !101
  %77 = load ptr, ptr %13, align 8, !tbaa !99
  %78 = icmp eq ptr %77, null
  br i1 %78, label %79, label %80

79:                                               ; preds = %67
  store i32 0, ptr %4, align 4
  store i32 1, ptr %11, align 4
  br label %91

80:                                               ; preds = %67
  %81 = load ptr, ptr %14, align 8, !tbaa !95
  %82 = load ptr, ptr %15, align 8, !tbaa !101
  %83 = load ptr, ptr %13, align 8, !tbaa !99
  %84 = call i64 @EC_POINT_point2buf(ptr noundef %81, ptr noundef %82, i32 noundef 2, ptr noundef %9, ptr noundef %83)
  %85 = load ptr, ptr %7, align 8, !tbaa !43
  %86 = getelementptr inbounds nuw %struct.translation_ctx_st, ptr %85, i32 0, i32 7
  store i64 %84, ptr %86, align 8, !tbaa !61
  %87 = load ptr, ptr %9, align 8, !tbaa !50
  %88 = load ptr, ptr %7, align 8, !tbaa !43
  %89 = getelementptr inbounds nuw %struct.translation_ctx_st, ptr %88, i32 0, i32 6
  store ptr %87, ptr %89, align 8, !tbaa !40
  %90 = load ptr, ptr %13, align 8, !tbaa !99
  call void @BN_CTX_free(ptr noundef %90)
  store i32 2, ptr %11, align 4
  br label %91

91:                                               ; preds = %80, %79
  call void @llvm.lifetime.end.p0(i64 8, ptr %15) #9
  call void @llvm.lifetime.end.p0(i64 8, ptr %14) #9
  call void @llvm.lifetime.end.p0(i64 8, ptr %13) #9
  call void @llvm.lifetime.end.p0(i64 8, ptr %12) #9
  %92 = load i32, ptr %11, align 4
  switch i32 %92, label %102 [
    i32 2, label %95
  ]

93:                                               ; preds = %60
  store i32 0, ptr %4, align 4
  store i32 1, ptr %11, align 4
  br label %102

94:                                               ; preds = %3
  call void @ERR_new()
  call void @ERR_set_debug(ptr noundef @.str, i32 noundef 1656, ptr noundef @__func__.get_payload_public_key)
  call void (i32, i32, ptr, ...) @ERR_set_error(i32 noundef 6, i32 noundef 224, ptr noundef null)
  store i32 0, ptr %4, align 4
  store i32 1, ptr %11, align 4
  br label %102

95:                                               ; preds = %91, %53, %45
  %96 = load i32, ptr %5, align 4, !tbaa !8
  %97 = load ptr, ptr %6, align 8, !tbaa !11
  %98 = load ptr, ptr %7, align 8, !tbaa !43
  %99 = call i32 @default_fixup_args(i32 noundef %96, ptr noundef %97, ptr noundef %98)
  store i32 %99, ptr %10, align 4, !tbaa !8
  %100 = load ptr, ptr %9, align 8, !tbaa !50
  call void @CRYPTO_free(ptr noundef %100, ptr noundef @.str, i32 noundef 1661)
  %101 = load i32, ptr %10, align 4, !tbaa !8
  store i32 %101, ptr %4, align 4
  store i32 1, ptr %11, align 4
  br label %102

102:                                              ; preds = %95, %94, %93, %91, %59, %44
  call void @llvm.lifetime.end.p0(i64 4, ptr %10) #9
  call void @llvm.lifetime.end.p0(i64 8, ptr %9) #9
  call void @llvm.lifetime.end.p0(i64 8, ptr %8) #9
  %103 = load i32, ptr %4, align 4
  ret i32 %103
}