; Function Attrs: nounwind uwtable
define internal i32 @get_payload_public_key(i32 noundef %0, ptr noundef captures(address_is_null) %1, ptr noundef %2) #0 {
  %4 = alloca ptr, align 8
  %5 = getelementptr inbounds nuw i8, ptr %2, i64 32
  %6 = load ptr, ptr %5, align 8, !tbaa !35
  call void @llvm.lifetime.start.p0(i64 8, ptr nonnull %4) #8
  store ptr null, ptr %4, align 8, !tbaa !44
  store ptr null, ptr %5, align 8, !tbaa !35
  %7 = tail call i32 @EVP_PKEY_get_base_id(ptr noundef %6) #8
  switch i32 %7, label %46 [
    i32 920, label %8
    i32 28, label %8
    i32 116, label %21
    i32 408, label %30
  ]

8:                                                ; preds = %3, %3
  %9 = getelementptr inbounds nuw i8, ptr %2, i64 48
  %10 = load ptr, ptr %9, align 8, !tbaa !37
  %11 = getelementptr inbounds nuw i8, ptr %10, i64 8
  %12 = load i32, ptr %11, align 8, !tbaa !57
  switch i32 %12, label %.critedge [
    i32 5, label %13
    i32 2, label %18
  ]

13:                                               ; preds = %8
  %14 = tail call ptr @EVP_PKEY_get0_DH(ptr noundef %6) #8
  %15 = call i64 @ossl_dh_key2buf(ptr noundef %14, ptr noundef nonnull %4, i64 noundef 0, i32 noundef 1) #8
  %16 = getelementptr inbounds nuw i8, ptr %2, i64 40
  store i64 %15, ptr %16, align 8, !tbaa !55
  %17 = load ptr, ptr %4, align 8, !tbaa !44
  store ptr %17, ptr %5, align 8, !tbaa !35
  br label %47

18:                                               ; preds = %8
  %19 = tail call ptr @EVP_PKEY_get0_DH(ptr noundef %6) #8
  %20 = tail call ptr @DH_get0_pub_key(ptr noundef %19) #8
  store ptr %20, ptr %5, align 8, !tbaa !35
  br label %47

21:                                               ; preds = %3
  %22 = getelementptr inbounds nuw i8, ptr %2, i64 48
  %23 = load ptr, ptr %22, align 8, !tbaa !37
  %24 = getelementptr inbounds nuw i8, ptr %23, i64 8
  %25 = load i32, ptr %24, align 8, !tbaa !57
  %26 = icmp eq i32 %25, 2
  br i1 %26, label %27, label %.critedge

27:                                               ; preds = %21
  %28 = tail call ptr @EVP_PKEY_get0_DSA(ptr noundef %6) #8
  %29 = tail call ptr @DSA_get0_pub_key(ptr noundef %28) #8
  store ptr %29, ptr %5, align 8, !tbaa !35
  br label %47

30:                                               ; preds = %3
  %31 = getelementptr inbounds nuw i8, ptr %2, i64 48
  %32 = load ptr, ptr %31, align 8, !tbaa !37
  %33 = getelementptr inbounds nuw i8, ptr %32, i64 8
  %34 = load i32, ptr %33, align 8, !tbaa !57
  %35 = icmp eq i32 %34, 5
  br i1 %35, label %36, label %.critedge

36:                                               ; preds = %30
  %37 = tail call ptr @EVP_PKEY_get0_EC_KEY(ptr noundef %6) #8
  %38 = tail call ptr @ossl_ec_key_get_libctx(ptr noundef %37) #8
  %39 = tail call ptr @BN_CTX_new_ex(ptr noundef %38) #8
  %40 = tail call ptr @EC_KEY_get0_group(ptr noundef %37) #8
  %41 = tail call ptr @EC_KEY_get0_public_key(ptr noundef %37) #8
  %.not = icmp eq ptr %39, null
  br i1 %.not, label %.critedge, label %42

42:                                               ; preds = %36
  %43 = call i64 @EC_POINT_point2buf(ptr noundef %40, ptr noundef %41, i32 noundef 2, ptr noundef nonnull %4, ptr noundef nonnull %39) #8
  %44 = getelementptr inbounds nuw i8, ptr %2, i64 40
  store i64 %43, ptr %44, align 8, !tbaa !55
  %45 = load ptr, ptr %4, align 8, !tbaa !44
  store ptr %45, ptr %5, align 8, !tbaa !35
  call void @BN_CTX_free(ptr noundef nonnull %39) #8
  br label %47

46:                                               ; preds = %3
  tail call void @ERR_new() #8
  tail call void @ERR_set_debug(ptr noundef nonnull @.str, i32 noundef 1656, ptr noundef nonnull @__func__.get_payload_public_key) #8
  tail call void (i32, i32, ptr, ...) @ERR_set_error(i32 noundef 6, i32 noundef 224, ptr noundef null) #8
  br label %.critedge

47:                                               ; preds = %42, %13, %18, %27
  %48 = call i32 @default_fixup_args(i32 noundef %0, ptr noundef %1, ptr noundef nonnull %2)
  %49 = load ptr, ptr %4, align 8, !tbaa !44
  call void @CRYPTO_free(ptr noundef %49, ptr noundef nonnull @.str, i32 noundef 1661) #8
  br label %.critedge

.critedge:                                        ; preds = %36, %30, %21, %8, %47, %46
  %.0 = phi i32 [ 0, %46 ], [ %48, %47 ], [ 0, %8 ], [ 0, %21 ], [ 0, %30 ], [ 0, %36 ]
  call void @llvm.lifetime.end.p0(i64 8, ptr nonnull %4) #8
  ret i32 %.0
}